; Function Attrs: nounwind sspstrong uwtable
define dso_local range(i64 1, 0) i64 @rb_reg_match2(i64 noundef %0) #2 {
  %2 = tail call i64 @rb_lastline_get() #29
  %3 = icmp eq i64 %2, 0
  %4 = and i64 %2, 7
  %5 = icmp ne i64 %4, 0
  %6 = or i1 %3, %5
  br i1 %6, label %rbimpl_RB_TYPE_P_fastpath.exit.thread, label %rbimpl_RB_TYPE_P_fastpath.exit

rbimpl_RB_TYPE_P_fastpath.exit:                   ; preds = %1
  %7 = inttoptr i64 %2 to ptr
  %8 = load i64, ptr %7, align 8, !tbaa !34
  %9 = and i64 %8, 31
  %10 = icmp eq i64 %9, 5
  br i1 %10, label %11, label %rbimpl_RB_TYPE_P_fastpath.exit.thread

rbimpl_RB_TYPE_P_fastpath.exit.thread:            ; preds = %1, %rbimpl_RB_TYPE_P_fastpath.exit
  tail call void @rb_backref_set(i64 noundef 4) #29
  br label %18

11:                                               ; preds = %rbimpl_RB_TYPE_P_fastpath.exit
  %12 = tail call fastcc range(i64 -1, -9223372036854775808) i64 @rb_reg_search_set_match(i64 noundef %0, i64 noundef %2, i64 noundef 0, i32 noundef 0, i32 noundef 1, ptr noundef null)
  %13 = icmp slt i64 %12, 0
  br i1 %13, label %18, label %14

14:                                               ; preds = %11
  %15 = tail call i64 @rb_str_sublen(i64 noundef %2, i64 noundef %12) #29
  %16 = shl i64 %15, 1
  %17 = or disjoint i64 %16, 1
  br label %18

18:                                               ; preds = %11, %14, %rbimpl_RB_TYPE_P_fastpath.exit.thread
  %.0 = phi i64 [ %17, %14 ], [ 4, %rbimpl_RB_TYPE_P_fastpath.exit.thread ], [ 4, %11 ]
  ret i64 %.0
}